; ModuleID = '62/1408.c'
source_filename = "62/1408.c"
target datalayout = "e-m:e-p270:32:32-p271:32:32-p272:64:64-i64:64-f80:128-n8:16:32:64-S128"
target triple = "x86_64-pc-linux-gnu"

; Function Attrs: noinline nounwind uwtable
define dso_local i32 @main() #0 {
  %1 = alloca i32, align 4
  %2 = alloca i8*, align 8
  %3 = alloca i32, align 4
  store i32 0, i32* %1, align 4
  store i32 0, i32* %3, align 4
  %4 = call noalias i8* @malloc(i64 300) #3
  store i8* %4, i8** %2, align 8
  %5 = load i8*, i8** %2, align 8
  %6 = call i32 (i8*, ...) bitcast (i32 (...)* @gets to i32 (i8*, ...)*)(i8* %5)
  br label %7

7:                                                ; preds = %43, %0
  %8 = load i8*, i8** %2, align 8
  %9 = load i8, i8* %8, align 1
  %10 = sext i8 %9 to i32
  %11 = icmp ne i32 %10, 0
  br i1 %11, label %12, label %46

12:                                               ; preds = %7
  %13 = load i8*, i8** %2, align 8
  %14 = load i8, i8* %13, align 1
  %15 = sext i8 %14 to i32
  %16 = icmp eq i32 %15, 32
  br i1 %16, label %17, label %21

17:                                               ; preds = %12
  %18 = load i32, i32* %3, align 4
  %19 = icmp ne i32 %18, 0
  br i1 %19, label %20, label %21

20:                                               ; preds = %17
  br label %43

21:                                               ; preds = %17, %12
  %22 = load i8*, i8** %2, align 8
  %23 = load i8, i8* %22, align 1
  %24 = sext i8 %23 to i32
  %25 = icmp eq i32 %24, 32
  br i1 %25, label %26, label %32

26:                                               ; preds = %21
  %27 = load i32, i32* %3, align 4
  %28 = icmp eq i32 %27, 0
  br i1 %28, label %29, label %32

29:                                               ; preds = %26
  %30 = load i32, i32* %3, align 4
  %31 = add nsw i32 %30, 1
  store i32 %31, i32* %3, align 4
  br label %32

32:                                               ; preds = %29, %26, %21
  %33 = load i8*, i8** %2, align 8
  %34 = load i8, i8* %33, align 1
  %35 = sext i8 %34 to i32
  %36 = icmp ne i32 %35, 32
  br i1 %36, label %37, label %38

37:                                               ; preds = %32
  store i32 0, i32* %3, align 4
  br label %38

38:                                               ; preds = %37, %32
  %39 = load i8*, i8** %2, align 8
  %40 = load i8, i8* %39, align 1
  %41 = sext i8 %40 to i32
  %42 = call i32 @putchar(i32 %41)
  br label %43

43:                                               ; preds = %38, %20
  %44 = load i8*, i8** %2, align 8
  %45 = getelementptr inbounds i8, i8* %44, i32 1
  store i8* %45, i8** %2, align 8
  br label %7

46:                                               ; preds = %7
  %47 = load i32, i32* %1, align 4
  ret i32 %47
}

; Function Attrs: nounwind
declare dso_local noalias i8* @malloc(i64) #1

declare dso_local i32 @gets(...) #2

declare dso_local i32 @putchar(i32) #2


!llvm.module.flags = !{!0}
!llvm.ident = !{!1}

!0 = !{i32 1, !"wchar_size", i32 4}
!1 = !{!"clang version 10.0.0-4ubuntu1 "}
