; ModuleID = 'source-C-CXX/61/1408.c'
source_filename = "source-C-CXX/61/1408.c"
target datalayout = "e-m:e-p270:32:32-p271:32:32-p272:64:64-i64:64-f80:128-n8:16:32:64-S128"
target triple = "x86_64-pc-linux-gnu"

%struct._IO_FILE = type { i32, i8*, i8*, i8*, i8*, i8*, i8*, i8*, i8*, i8*, i8*, i8*, %struct._IO_marker*, %struct._IO_FILE*, i32, i32, i64, i16, i8, [1 x i8], i8*, i64, %struct._IO_codecvt*, %struct._IO_wide_data*, %struct._IO_FILE*, i8*, i64, i32, [20 x i8] }
%struct._IO_marker = type opaque
%struct._IO_codecvt = type opaque
%struct._IO_wide_data = type opaque

@stdout = external local_unnamed_addr global %struct._IO_FILE*, align 8

; Function Attrs: nounwind sspstrong uwtable
define dso_local i32 @main() local_unnamed_addr #0 {
  %1 = tail call noalias align 16 dereferenceable_or_null(300) i8* @malloc(i64 300) #4
  %2 = tail call i32 (i8*, ...) bitcast (i32 (...)* @gets to i32 (i8*, ...)*)(i8* %1) #4
  %3 = load i8, i8* %1, align 16, !tbaa !5
  %4 = icmp eq i8 %3, 0
  br i1 %4, label %25, label %5

5:                                                ; preds = %0, %20
  %6 = phi i8 [ %23, %20 ], [ %3, %0 ]
  %7 = phi i32 [ %21, %20 ], [ 0, %0 ]
  %8 = phi i8* [ %22, %20 ], [ %1, %0 ]
  %9 = icmp eq i8 %6, 32
  %10 = icmp ne i32 %7, 0
  %11 = select i1 %9, i1 %10, i1 false
  br i1 %11, label %20, label %12

12:                                               ; preds = %5
  %13 = icmp eq i32 %7, 0
  %14 = select i1 %9, i1 %13, i1 false
  %15 = select i1 %14, i32 1, i32 %7
  %16 = select i1 %9, i32 %15, i32 0
  %17 = sext i8 %6 to i32
  %18 = load %struct._IO_FILE*, %struct._IO_FILE** @stdout, align 8, !tbaa !8
  %19 = tail call i32 @putc(i32 %17, %struct._IO_FILE* %18) #4
  br label %20

20:                                               ; preds = %5, %12
  %21 = phi i32 [ 1, %5 ], [ %16, %12 ]
  %22 = getelementptr inbounds i8, i8* %8, i64 1
  %23 = load i8, i8* %22, align 1, !tbaa !5
  %24 = icmp eq i8 %23, 0
  br i1 %24, label %25, label %5, !llvm.loop !10

25:                                               ; preds = %20, %0
  ret i32 0
}

; Function Attrs: inaccessiblememonly mustprogress nofree nounwind willreturn
declare noalias noundef align 16 i8* @malloc(i64 noundef) local_unnamed_addr #1

declare i32 @gets(...) local_unnamed_addr #2

; Function Attrs: nofree nounwind
declare noundef i32 @putc(i32 noundef, %struct._IO_FILE* nocapture noundef) local_unnamed_addr #3


!llvm.module.flags = !{!0, !1, !2, !3}
!llvm.ident = !{!4}

!0 = !{i32 1, !"wchar_size", i32 4}
!1 = !{i32 7, !"PIC Level", i32 2}
!2 = !{i32 7, !"PIE Level", i32 2}
!3 = !{i32 7, !"uwtable", i32 1}
!4 = !{!"clang version 13.0.0"}
!5 = !{!6, !6, i64 0}
!6 = !{!"omnipotent char", !7, i64 0}
!7 = !{!"Simple C/C++ TBAA"}
!8 = !{!9, !9, i64 0}
!9 = !{!"any pointer", !6, i64 0}
!10 = distinct !{!10, !11}
!11 = !{!"llvm.loop.mustprogress"}
